; Function Attrs: nounwind uwtable
define noalias noundef ptr @Unm_ManFindUsedNodes(ptr noundef readonly captures(none) %0, i32 noundef %1) local_unnamed_addr #0 {
  %3 = tail call noalias dereferenceable_or_null(16) ptr @malloc(i64 noundef 16) #21
  %4 = getelementptr inbounds nuw i8, ptr %3, i64 4
  store i32 0, ptr %4, align 4, !tbaa !44
  store i32 1000, ptr %3, align 8, !tbaa !42
  %5 = tail call noalias dereferenceable_or_null(4000) ptr @malloc(i64 noundef 4000) #21
  %6 = getelementptr inbounds nuw i8, ptr %3, i64 8
  store ptr %5, ptr %6, align 8, !tbaa !43
  %7 = add i32 %1, -1
  %or.cond.i.i = icmp ult i32 %7, 15
  %spec.store.select.i.i = select i1 %or.cond.i.i, i32 16, i32 %1
  %.not.i.i = icmp eq i32 %spec.store.select.i.i, 0
  br i1 %.not.i.i, label %Vec_StrStart.exit, label %8

8:                                                ; preds = %2
  %9 = sext i32 %spec.store.select.i.i to i64
  %10 = tail call noalias ptr @malloc(i64 noundef %9) #21
  br label %Vec_StrStart.exit

Vec_StrStart.exit:                                ; preds = %2, %8
  %11 = phi ptr [ %10, %8 ], [ null, %2 ]
  %12 = sext i32 %1 to i64
  tail call void @llvm.memset.p0.i64(ptr align 1 %11, i8 0, i64 %12, i1 false)
  %13 = getelementptr i8, ptr %0, i64 4
  %.val16 = load i32, ptr %13, align 4, !tbaa !44
  %14 = icmp sgt i32 %.val16, 0
  br i1 %14, label %.lr.ph, label %.preheader

.lr.ph:                                           ; preds = %Vec_StrStart.exit
  %15 = getelementptr i8, ptr %0, i64 8
  %.val17 = load ptr, ptr %15, align 8, !tbaa !43
  %16 = zext nneg i32 %.val16 to i64
  br label %18

.preheader:                                       ; preds = %18, %Vec_StrStart.exit
  %17 = icmp sgt i32 %1, 0
  br i1 %17, label %.lr.ph22.preheader, label %._crit_edge

.lr.ph22.preheader:                               ; preds = %.preheader
  %wide.trip.count = zext nneg i32 %1 to i64
  br label %.lr.ph22

18:                                               ; preds = %.lr.ph, %18
  %indvars.iv = phi i64 [ 0, %.lr.ph ], [ %indvars.iv.next, %18 ]
  %19 = getelementptr inbounds nuw i32, ptr %.val17, i64 %indvars.iv
  %20 = load i32, ptr %19, align 4, !tbaa !48
  %21 = sext i32 %20 to i64
  %22 = getelementptr inbounds i8, ptr %11, i64 %21
  store i8 1, ptr %22, align 1, !tbaa !73
  %indvars.iv.next = add nuw nsw i64 %indvars.iv, 3
  %23 = icmp samesign ult i64 %indvars.iv.next, %16
  br i1 %23, label %18, label %.preheader, !llvm.loop !74

.lr.ph22:                                         ; preds = %.lr.ph22.preheader, %50
  %24 = phi ptr [ %5, %.lr.ph22.preheader ], [ %.pre.i28, %50 ]
  %indvars.iv24 = phi i64 [ 0, %.lr.ph22.preheader ], [ %indvars.iv.next25, %50 ]
  %25 = getelementptr inbounds nuw i8, ptr %11, i64 %indvars.iv24
  %26 = load i8, ptr %25, align 1, !tbaa !73
  %.not = icmp eq i8 %26, 0
  br i1 %.not, label %50, label %27

27:                                               ; preds = %.lr.ph22
  %28 = load i32, ptr %4, align 4, !tbaa !44
  %29 = load i32, ptr %3, align 8, !tbaa !42
  %30 = icmp eq i32 %28, %29
  br i1 %30, label %31, label %Vec_IntPush.exit

31:                                               ; preds = %27
  %32 = icmp slt i32 %28, 16
  br i1 %32, label %33, label %38

33:                                               ; preds = %31
  %.not9.i.i = icmp eq ptr %24, null
  br i1 %.not9.i.i, label %36, label %34

34:                                               ; preds = %33
  %35 = tail call dereferenceable_or_null(64) ptr @realloc(ptr noundef nonnull %24, i64 noundef 64) #22
  br label %Vec_IntPush.exit.sink.split

36:                                               ; preds = %33
  %37 = tail call noalias dereferenceable_or_null(64) ptr @malloc(i64 noundef 64) #21
  br label %Vec_IntPush.exit.sink.split

38:                                               ; preds = %31
  %39 = shl nuw nsw i32 %28, 1
  %.not9.i9.i = icmp eq ptr %24, null
  %40 = zext nneg i32 %39 to i64
  %41 = shl nuw nsw i64 %40, 2
  br i1 %.not9.i9.i, label %44, label %42

42:                                               ; preds = %38
  %43 = tail call ptr @realloc(ptr noundef nonnull %24, i64 noundef %41) #22
  br label %Vec_IntPush.exit.sink.split

44:                                               ; preds = %38
  %45 = tail call noalias ptr @malloc(i64 noundef %41) #21
  br label %Vec_IntPush.exit.sink.split

Vec_IntPush.exit.sink.split:                      ; preds = %42, %44, %34, %36
  %.sink31 = phi ptr [ %35, %34 ], [ %37, %36 ], [ %43, %42 ], [ %45, %44 ]
  %.sink = phi i32 [ 16, %34 ], [ 16, %36 ], [ %39, %42 ], [ %39, %44 ]
  store ptr %.sink31, ptr %6, align 8, !tbaa !43
  store i32 %.sink, ptr %3, align 8, !tbaa !42
  br label %Vec_IntPush.exit

Vec_IntPush.exit:                                 ; preds = %Vec_IntPush.exit.sink.split, %27
  %.pre.i29 = phi ptr [ %24, %27 ], [ %.sink31, %Vec_IntPush.exit.sink.split ]
  %46 = add nsw i32 %28, 1
  store i32 %46, ptr %4, align 4, !tbaa !44
  %47 = sext i32 %28 to i64
  %48 = getelementptr inbounds i32, ptr %.pre.i29, i64 %47
  %49 = trunc nuw nsw i64 %indvars.iv24 to i32
  store i32 %49, ptr %48, align 4, !tbaa !48
  br label %50

50:                                               ; preds = %.lr.ph22, %Vec_IntPush.exit
  %.pre.i28 = phi ptr [ %24, %.lr.ph22 ], [ %.pre.i29, %Vec_IntPush.exit ]
  %indvars.iv.next25 = add nuw nsw i64 %indvars.iv24, 1
  %exitcond.not = icmp eq i64 %indvars.iv.next25, %wide.trip.count
  br i1 %exitcond.not, label %._crit_edge.thread, label %.lr.ph22, !llvm.loop !75

._crit_edge:                                      ; preds = %.preheader
  %.not.i = icmp eq ptr %11, null
  br i1 %.not.i, label %Vec_StrFree.exit, label %._crit_edge.thread

._crit_edge.thread:                               ; preds = %50, %._crit_edge
  tail call void @free(ptr noundef nonnull %11) #19
  br label %Vec_StrFree.exit

Vec_StrFree.exit:                                 ; preds = %._crit_edge, %._crit_edge.thread
  %.val = load i32, ptr %4, align 4, !tbaa !44
  %51 = tail call i32 (ptr, ...) @printf(ptr noundef nonnull dereferenceable(1) @.str.3, i32 noundef %.val)
  ret ptr %3
}